(dp0
S'_AgentService:AgentInfo'
p1
(dp2
S'com.plexapp.agents.fanarttv'
p3
(lp4
(dp5
S'media_types'
p6
(lp7
S'Movie'
p8
asS'primary_provider'
p9
I00
sS'fallback_agent'
p10
NsS'contributes_to'
p11
(lp12
S'com.plexapp.agents.imdb'
p13
aS'com.plexapp.agents.themoviedb'
p14
asS'has_attribution'
p15
I01
sS'languages'
p16
(lp17
S'xn'
p18
asS'persist_stored_files'
p19
I01
sS'version'
p20
I0
sS'accepts_from'
p21
NsS'prefs'
p22
I01
sS'name'
p23
S'Fanart.tv'
p24
sa(dp25
S'media_types'
p26
(lp27
S'TV_Show'
p28
asS'primary_provider'
p29
I00
sS'fallback_agent'
p30
NsS'contributes_to'
p31
(lp32
S'com.plexapp.agents.thetvdb'
p33
aS'com.plexapp.agents.themoviedb'
p34
asg15
I01
sS'languages'
p35
(lp36
S'xn'
p37
asS'persist_stored_files'
p38
I01
sS'version'
p39
I0
sS'accepts_from'
p40
NsS'prefs'
p41
I01
sS'name'
p42
S'Fanart.tv'
p43
sa(dp44
S'media_types'
p45
(lp46
S'Artist'
p47
asS'primary_provider'
p48
I00
sS'fallback_agent'
p49
NsS'contributes_to'
p50
(lp51
S'com.plexapp.agents.lastfm'
p52
asg15
I01
sS'languages'
p53
(lp54
S'xn'
p55
asS'persist_stored_files'
p56
I01
sS'version'
p57
I0
sS'accepts_from'
p58
NsS'prefs'
p59
I01
sS'name'
p60
S'Fanart.tv'
p61
sa(dp62
S'media_types'
p63
(lp64
S'Album'
p65
asS'primary_provider'
p66
I00
sS'fallback_agent'
p67
NsS'contributes_to'
p68
(lp69
S'com.plexapp.agents.lastfm'
p70
asg15
I01
sS'languages'
p71
(lp72
S'xn'
p73
asS'persist_stored_files'
p74
I01
sS'version'
p75
I0
sS'accepts_from'
p76
NsS'prefs'
p77
I01
sS'name'
p78
S'Fanart.tv'
p79
sasS'com.plexapp.agents.none'
p80
(lp81
(dp82
S'media_types'
p83
(lp84
S'Movie'
p85
asS'primary_provider'
p86
I01
sS'fallback_agent'
p87
NsS'contributes_to'
p88
Nsg15
I00
sS'languages'
p89
(lp90
S'xn'
p91
asS'persist_stored_files'
p92
I01
sS'version'
p93
I0
sS'accepts_from'
p94
NsS'prefs'
p95
I00
sS'name'
p96
S'Personal Media'
p97
sa(dp98
S'media_types'
p99
(lp100
S'TV_Show'
p101
asS'primary_provider'
p102
I01
sS'fallback_agent'
p103
NsS'contributes_to'
p104
Nsg15
I00
sS'languages'
p105
(lp106
S'xn'
p107
asS'persist_stored_files'
p108
I01
sS'version'
p109
I0
sS'accepts_from'
p110
NsS'prefs'
p111
I00
sS'name'
p112
S'Personal Media Shows'
p113
sa(dp114
S'media_types'
p115
(lp116
S'Artist'
p117
asS'primary_provider'
p118
I01
sS'fallback_agent'
p119
NsS'contributes_to'
p120
Nsg15
I00
sS'languages'
p121
(lp122
S'xn'
p123
asS'persist_stored_files'
p124
I01
sS'version'
p125
I0
sS'accepts_from'
p126
NsS'prefs'
p127
I00
sS'name'
p128
S'Personal Media Artists'
p129
sa(dp130
S'media_types'
p131
(lp132
S'Album'
p133
asS'primary_provider'
p134
I01
sS'fallback_agent'
p135
NsS'contributes_to'
p136
Nsg15
I00
sS'languages'
p137
(lp138
S'xn'
p139
asS'persist_stored_files'
p140
I01
sS'version'
p141
I0
sS'accepts_from'
p142
NsS'prefs'
p143
I00
sS'name'
p144
S'Personal Media Albums'
p145
sa(dp146
S'media_types'
p147
(lp148
S'Photo'
p149
asS'primary_provider'
p150
I01
sS'fallback_agent'
p151
NsS'contributes_to'
p152
Nsg15
I00
sS'languages'
p153
(lp154
S'en'
p155
aS'ar'
p156
aS'bg'
p157
aS'ca'
p158
aS'cs'
p159
aS'cy'
p160
aS'da'
p161
aS'de'
p162
aS'el'
p163
aS'es'
p164
aS'et'
p165
aS'fa'
p166
aS'fi'
p167
aS'fr'
p168
aS'he'
p169
aS'hi'
p170
aS'hr'
p171
aS'ht'
p172
aS'hu'
p173
aS'id'
p174
aS'it'
p175
aS'ja'
p176
aS'ko'
p177
aS'lt'
p178
aS'lv'
p179
aS'ms'
p180
aS'mt'
p181
aS'nl'
p182
aS'no'
p183
aS'pl'
p184
aS'pt'
p185
aS'ro'
p186
aS'ru'
p187
aS'sk'
p188
aS'sv'
p189
aS'sl'
p190
aS'sr'
p191
aS'th'
p192
aS'tr'
p193
aS'uk'
p194
aS'ur'
p195
aS'vi'
p196
aS'zh'
p197
aS'xn'
p198
asS'persist_stored_files'
p199
I01
sS'version'
p200
I0
sS'accepts_from'
p201
NsS'prefs'
p202
I00
sS'name'
p203
S'Photos'
p204
sasS'tv.plex.agents.music'
p205
(lp206
(dp207
S'media_types'
p208
(lp209
S'Artist'
p210
asS'primary_provider'
p211
I01
sS'fallback_agent'
p212
NsS'contributes_to'
p213
(lp214
S'com.plexapp.agents.localmedia'
p215
asg15
I01
sS'languages'
p216
(lp217
S'en'
p218
aS'ar'
p219
aS'bg'
p220
aS'zh'
p221
aS'hr'
p222
aS'cs'
p223
aS'da'
p224
aS'nl'
p225
aS'fi'
p226
aS'fr'
p227
aS'de'
p228
aS'el'
p229
aS'hu'
p230
aS'id'
p231
aS'it'
p232
aS'ja'
p233
aS'ko'
p234
aS'nn'
p235
aS'pl'
p236
aS'pt'
p237
aS'ro'
p238
aS'ru'
p239
aS'sr'
p240
aS'sk'
p241
aS'es'
p242
aS'sv'
p243
aS'th'
p244
aS'tr'
p245
aS'vi'
p246
aS'xx'
p247
asS'persist_stored_files'
p248
I01
sS'version'
p249
I0
sS'accepts_from'
p250
NsS'prefs'
p251
I01
sS'name'
p252
S'Plex Music'
p253
sa(dp254
S'media_types'
p255
(lp256
S'Album'
p257
asS'primary_provider'
p258
I01
sS'fallback_agent'
p259
NsS'contributes_to'
p260
(lp261
S'com.plexapp.agents.localmedia'
p262
asg15
I01
sS'languages'
p263
g217
sS'persist_stored_files'
p264
I01
sS'version'
p265
I0
sS'accepts_from'
p266
NsS'prefs'
p267
I01
sS'name'
p268
S'Plex Music'
p269
sasS'com.plexapp.agents.opensubtitles'
p270
(lp271
(dp272
S'media_types'
p273
(lp274
S'Movie'
p275
asS'primary_provider'
p276
I00
sS'fallback_agent'
p277
NsS'contributes_to'
p278
(lp279
S'com.plexapp.agents.imdb'
p280
asg15
I00
sS'languages'
p281
(lp282
S'xn'
p283
asS'persist_stored_files'
p284
I01
sS'version'
p285
I0
sS'accepts_from'
p286
NsS'prefs'
p287
I01
sS'name'
p288
S'OpenSubtitles.org'
p289
sa(dp290
S'media_types'
p291
(lp292
S'TV_Show'
p293
asS'primary_provider'
p294
I00
sS'fallback_agent'
p295
NsS'contributes_to'
p296
(lp297
S'com.plexapp.agents.thetvdb'
p298
asg15
I00
sS'languages'
p299
(lp300
S'xn'
p301
asS'persist_stored_files'
p302
I01
sS'version'
p303
I0
sS'accepts_from'
p304
NsS'prefs'
p305
I01
sS'name'
p306
S'OpenSubtitles.org'
p307
sasS'com.plexapp.agents.imdb'
p308
(lp309
(dp310
S'media_types'
p311
(lp312
S'Movie'
p313
asS'primary_provider'
p314
I01
sS'fallback_agent'
p315
NsS'contributes_to'
p316
(lp317
S'com.plexapp.agents.themoviedb'
p318
asS'has_attribution'
p319
I01
sS'languages'
p320
(lp321
S'en'
p322
aS'sv'
p323
aS'fr'
p324
aS'es'
p325
aS'nl'
p326
aS'de'
p327
aS'it'
p328
aS'da'
p329
aS'ar'
p330
aS'ca'
p331
aS'zh'
p332
aS'cs'
p333
aS'et'
p334
aS'fi'
p335
aS'el'
p336
aS'he'
p337
aS'hi'
p338
aS'hu'
p339
aS'id'
p340
aS'ja'
p341
aS'ko'
p342
aS'lv'
p343
aS'no'
p344
aS'fa'
p345
aS'pl'
p346
aS'pt'
p347
aS'ro'
p348
aS'ru'
p349
aS'sk'
p350
aS'th'
p351
aS'tr'
p352
aS'uk'
p353
aS'vi'
p354
asS'persist_stored_files'
p355
I01
sS'version'
p356
I0
sS'accepts_from'
p357
(lp358
S'com.plexapp.agents.localmedia'
p359
asS'prefs'
p360
I01
sS'name'
p361
S'Plex Movie'
p362
sasS'com.plexapp.agents.lyricfind'
p363
(lp364
(dp365
S'media_types'
p366
(lp367
S'Album'
p368
asS'primary_provider'
p369
I00
sS'fallback_agent'
p370
NsS'contributes_to'
p371
(lp372
S'com.plexapp.agents.lastfm'
p373
aS'tv.plex.agents.music'
p374
aS'org.musicbrainz.agents.music'
p375
asg15
I01
sS'languages'
p376
(lp377
S'xn'
p378
asS'persist_stored_files'
p379
I01
sS'version'
p380
I0
sS'accepts_from'
p381
NsS'prefs'
p382
I00
sS'name'
p383
S'LyricFind'
p384
sasS'com.plexapp.agents.thetvdb'
p385
(lp386
(dp387
S'media_types'
p388
(lp389
S'TV_Show'
p390
asS'primary_provider'
p391
I01
sS'fallback_agent'
p392
NsS'contributes_to'
p393
Nsg15
I01
sS'languages'
p394
(lp395
S'en'
p396
aS'fr'
p397
aS'zh'
p398
aS'sv'
p399
aS'no'
p400
aS'da'
p401
aS'fi'
p402
aS'nl'
p403
aS'de'
p404
aS'it'
p405
aS'es'
p406
aS'pl'
p407
aS'hu'
p408
aS'el'
p409
aS'tr'
p410
aS'ru'
p411
aS'he'
p412
aS'ja'
p413
aS'pt'
p414
aS'cs'
p415
aS'ko'
p416
aS'sl'
p417
aS'hr'
p418
asS'persist_stored_files'
p419
I01
sS'version'
p420
I0
sS'accepts_from'
p421
NsS'prefs'
p422
I01
sS'name'
p423
S'TheTVDB'
p424
sasS'tv.plex.agents.movie'
p425
(lp426
(dp427
S'media_types'
p428
(lp429
S'Movie'
p430
asS'primary_provider'
p431
I01
sS'fallback_agent'
p432
NsS'contributes_to'
p433
Nsg15
I01
sS'languages'
p434
(lp435
sS'persist_stored_files'
p436
I01
sS'version'
p437
I0
sS'accepts_from'
p438
NsS'prefs'
p439
I01
sS'name'
p440
S'Plex Movie'
p441
sasS'tv.plex.agents.series'
p442
(lp443
(dp444
S'media_types'
p445
(lp446
S'TV_Show'
p447
asS'primary_provider'
p448
I01
sS'fallback_agent'
p449
NsS'contributes_to'
p450
Nsg15
I01
sS'languages'
p451
(lp452
sS'persist_stored_files'
p453
I01
sS'version'
p454
I0
sS'accepts_from'
p455
NsS'prefs'
p456
I01
sS'name'
p457
S'Plex TV Series'
p458
sasS'com.plexapp.agents.plexthememusic'
p459
(lp460
(dp461
S'media_types'
p462
(lp463
S'TV_Show'
p464
asS'accepts_from'
p465
NsS'fallback_agent'
p466
NsS'contributes_to'
p467
(lp468
S'com.plexapp.agents.thetvdb'
p469
aS'com.plexapp.agents.thetvdbdvdorder'
p470
aS'com.plexapp.agents.themoviedb'
p471
asS'has_attribution'
p472
I00
sS'languages'
p473
(lp474
S'xn'
p475
asS'persist_stored_files'
p476
I01
sS'version'
p477
I0
sS'primary_provider'
p478
I00
sS'prefs'
p479
I00
sS'name'
p480
S'Plex Theme Music'
p481
sasS'org.musicbrainz.agents.music'
p482
(lp483
(dp484
S'media_types'
p485
(lp486
S'Artist'
p487
asS'primary_provider'
p488
I01
sS'fallback_agent'
p489
NsS'contributes_to'
p490
Nsg15
I01
sS'languages'
p491
(lp492
S'en'
p493
aS'ar'
p494
aS'bg'
p495
aS'zh'
p496
aS'hr'
p497
aS'cs'
p498
aS'da'
p499
aS'nl'
p500
aS'fi'
p501
aS'fr'
p502
aS'de'
p503
aS'el'
p504
aS'hu'
p505
aS'id'
p506
aS'it'
p507
aS'ja'
p508
aS'ko'
p509
aS'nn'
p510
aS'pl'
p511
aS'pt'
p512
aS'ro'
p513
aS'ru'
p514
aS'sr'
p515
aS'sk'
p516
aS'es'
p517
aS'sv'
p518
aS'th'
p519
aS'tr'
p520
aS'vi'
p521
aS'xx'
p522
asS'persist_stored_files'
p523
I01
sS'version'
p524
I0
sS'accepts_from'
p525
NsS'prefs'
p526
I01
sS'name'
p527
S'Musicbrainz'
p528
sa(dp529
S'media_types'
p530
(lp531
S'Album'
p532
asS'primary_provider'
p533
I01
sS'fallback_agent'
p534
NsS'contributes_to'
p535
Nsg15
I01
sS'languages'
p536
g492
sS'persist_stored_files'
p537
I01
sS'version'
p538
I0
sS'accepts_from'
p539
NsS'prefs'
p540
I01
sS'name'
p541
S'Musicbrainz'
p542
sasS'com.plexapp.agents.themoviedb'
p543
(lp544
(dp545
S'media_types'
p546
(lp547
S'Movie'
p548
asS'primary_provider'
p549
I01
sS'fallback_agent'
p550
NsS'contributes_to'
p551
Nsg15
I01
sS'languages'
p552
(lp553
S'en'
p554
aS'cs'
p555
aS'da'
p556
aS'de'
p557
aS'el'
p558
aS'es'
p559
aS'fi'
p560
aS'fr'
p561
aS'he'
p562
aS'hr'
p563
aS'hu'
p564
aS'it'
p565
aS'lv'
p566
aS'lt'
p567
aS'nl'
p568
aS'no'
p569
aS'pl'
p570
aS'pt'
p571
aS'ru'
p572
aS'sk'
p573
aS'sv'
p574
aS'th'
p575
aS'tr'
p576
aS'vi'
p577
aS'zh'
p578
aS'ko'
p579
asS'persist_stored_files'
p580
I01
sS'version'
p581
I0
sS'accepts_from'
p582
(lp583
S'com.plexapp.agents.localmedia'
p584
asS'prefs'
p585
I01
sS'name'
p586
S'The Movie Database'
p587
sa(dp588
S'media_types'
p589
(lp590
S'TV_Show'
p591
asS'primary_provider'
p592
I01
sS'fallback_agent'
p593
NsS'contributes_to'
p594
(lp595
S'com.plexapp.agents.thetvdb'
p596
asg15
I01
sS'languages'
p597
g553
sS'persist_stored_files'
p598
I01
sS'version'
p599
I0
sS'accepts_from'
p600
(lp601
S'com.plexapp.agents.localmedia'
p602
aS'com.plexapp.agents.thetvdb'
p603
asS'prefs'
p604
I01
sS'name'
p605
S'The Movie Database'
p606
sasS'com.plexapp.agents.localmedia'
p607
(lp608
(dp609
S'media_types'
p610
(lp611
S'Movie'
p612
asS'primary_provider'
p613
I00
sS'fallback_agent'
p614
NsS'contributes_to'
p615
(lp616
S'com.plexapp.agents.imdb'
p617
aS'com.plexapp.agents.none'
p618
asg15
I00
sS'languages'
p619
(lp620
S'xn'
p621
asS'persist_stored_files'
p622
I00
sS'version'
p623
I0
sS'accepts_from'
p624
NsS'prefs'
p625
I01
sS'name'
p626
S'Local Media Assets (Movies)'
p627
sa(dp628
S'media_types'
p629
(lp630
S'TV_Show'
p631
asS'primary_provider'
p632
I00
sS'fallback_agent'
p633
NsS'contributes_to'
p634
(lp635
S'com.plexapp.agents.thetvdb'
p636
aS'com.plexapp.agents.none'
p637
asg15
I00
sS'languages'
p638
(lp639
S'xn'
p640
asS'persist_stored_files'
p641
I00
sS'version'
p642
I0
sS'accepts_from'
p643
NsS'prefs'
p644
I01
sS'name'
p645
S'Local Media Assets (TV)'
p646
sa(dp647
S'media_types'
p648
(lp649
S'Artist'
p650
asS'primary_provider'
p651
I00
sS'fallback_agent'
p652
NsS'contributes_to'
p653
(lp654
S'com.plexapp.agents.discogs'
p655
aS'com.plexapp.agents.lastfm'
p656
aS'com.plexapp.agents.plexmusic'
p657
aS'com.plexapp.agents.none'
p658
aS'tv.plex.agents.music'
p659
aS'org.musicbrainz.agents.music'
p660
asg15
I00
sS'languages'
p661
(lp662
S'xn'
p663
asS'persist_stored_files'
p664
I00
sS'version'
p665
I0
sS'accepts_from'
p666
NsS'prefs'
p667
I01
sS'name'
p668
S'Local Media Assets (Artists)'
p669
sa(dp670
S'media_types'
p671
(lp672
S'Artist'
p673
asS'primary_provider'
p674
I00
sS'fallback_agent'
p675
NsS'contributes_to'
p676
(lp677
S'com.plexapp.agents.plexmusic'
p678
asg15
I00
sS'languages'
p679
g662
sS'persist_stored_files'
p680
I00
sS'version'
p681
I2
sS'accepts_from'
p682
NsS'prefs'
p683
I01
sS'name'
p684
S'Local Media Assets (Artists)'
p685
sa(dp686
S'media_types'
p687
(lp688
S'Album'
p689
asS'primary_provider'
p690
I00
sS'fallback_agent'
p691
NsS'contributes_to'
p692
(lp693
S'com.plexapp.agents.discogs'
p694
aS'com.plexapp.agents.lastfm'
p695
aS'com.plexapp.agents.plexmusic'
p696
aS'com.plexapp.agents.none'
p697
aS'tv.plex.agents.music'
p698
aS'org.musicbrainz.agents.music'
p699
asg15
I00
sS'languages'
p700
(lp701
S'xn'
p702
asS'persist_stored_files'
p703
I00
sS'version'
p704
I0
sS'accepts_from'
p705
NsS'prefs'
p706
I01
sS'name'
p707
S'Local Media Assets (Albums)'
p708
sasS'com.plexapp.agents.movieposterdb'
p709
(lp710
(dp711
S'media_types'
p712
(lp713
S'Movie'
p714
asS'primary_provider'
p715
I00
sS'fallback_agent'
p716
NsS'contributes_to'
p717
(lp718
S'com.plexapp.agents.imdb'
p719
asS'has_attribution'
p720
I01
sS'languages'
p721
(lp722
S'xn'
p723
asS'persist_stored_files'
p724
I01
sS'version'
p725
I0
sS'accepts_from'
p726
NsS'prefs'
p727
I00
sS'name'
p728
S'CineMaterial'
p729
sasS'com.plexapp.agents.htbackdrops'
p730
(lp731
(dp732
S'media_types'
p733
(lp734
S'Artist'
p735
asS'primary_provider'
p736
I00
sS'fallback_agent'
p737
NsS'contributes_to'
p738
(lp739
S'com.plexapp.agents.lastfm'
p740
asg15
I01
sS'languages'
p741
(lp742
S'ab'
p743
aS'aa'
p744
aS'af'
p745
aS'ak'
p746
aS'sq'
p747
aS'am'
p748
aS'ar'
p749
aS'an'
p750
aS'hy'
p751
aS'as'
p752
aS'av'
p753
aS'ae'
p754
aS'ay'
p755
aS'az'
p756
aS'bm'
p757
aS'ba'
p758
aS'eu'
p759
aS'be'
p760
aS'bn'
p761
aS'bh'
p762
aS'bi'
p763
aS'bs'
p764
aS'pb'
p765
aS'br'
p766
aS'bg'
p767
aS'my'
p768
aS'ca'
p769
aS'ch'
p770
aS'ce'
p771
aS'ny'
p772
aS'zh'
p773
aS'cu'
p774
aS'cv'
p775
aS'kw'
p776
aS'co'
p777
aS'cr'
p778
aS'hr'
p779
aS'cs'
p780
aS'da'
p781
aS'dv'
p782
aS'nl'
p783
aS'dz'
p784
aS'en'
p785
aS'eo'
p786
aS'et'
p787
aS'ee'
p788
aS'fo'
p789
aS'fj'
p790
aS'fi'
p791
aS'fr'
p792
aS'fy'
p793
aS'ff'
p794
aS'gd'
p795
aS'gl'
p796
aS'lg'
p797
aS'ka'
p798
aS'de'
p799
aS'el'
p800
aS'gn'
p801
aS'gu'
p802
aS'ht'
p803
aS'ha'
p804
aS'he'
p805
aS'hz'
p806
aS'hi'
p807
aS'ho'
p808
aS'hu'
p809
aS'is'
p810
aS'io'
p811
aS'ig'
p812
aS'id'
p813
aS'ia'
p814
aS'ie'
p815
aS'iu'
p816
aS'ik'
p817
aS'ga'
p818
aS'it'
p819
aS'ja'
p820
aS'jv'
p821
aS'kl'
p822
aS'kn'
p823
aS'kr'
p824
aS'ks'
p825
aS'kk'
p826
aS'km'
p827
aS'ki'
p828
aS'rw'
p829
aS'ky'
p830
aS'kv'
p831
aS'kg'
p832
aS'ko'
p833
aS'kj'
p834
aS'ku'
p835
aS'lo'
p836
aS'la'
p837
aS'lv'
p838
aS'li'
p839
aS'ln'
p840
aS'lt'
p841
aS'lu'
p842
aS'lb'
p843
aS'mk'
p844
aS'mg'
p845
aS'ms'
p846
aS'ml'
p847
aS'mt'
p848
aS'gv'
p849
aS'mi'
p850
aS'mr'
p851
aS'mh'
p852
aS'mo'
p853
aS'mn'
p854
aS'na'
p855
aS'nv'
p856
aS'ng'
p857
aS'ne'
p858
aS'xn'
p859
aS'nd'
p860
aS'no'
p861
aS'nb'
p862
aS'nn'
p863
aS'oc'
p864
aS'oj'
p865
aS'or'
p866
aS'om'
p867
aS'os'
p868
aS'pi'
p869
aS'pa'
p870
aS'fa'
p871
aS'pl'
p872
aS'pt'
p873
aS'ps'
p874
aS'qu'
p875
aS'rm'
p876
aS'ro'
p877
aS'rn'
p878
aS'ru'
p879
aS'se'
p880
aS'sm'
p881
aS'sg'
p882
aS'sa'
p883
aS'sc'
p884
aS'sr'
p885
aS'sn'
p886
aS'ii'
p887
aS'sd'
p888
aS'si'
p889
aS'sk'
p890
aS'sl'
p891
aS'so'
p892
aS'st'
p893
aS'nr'
p894
aS'es'
p895
aS'su'
p896
aS'sw'
p897
aS'ss'
p898
aS'sv'
p899
aS'tl'
p900
aS'ty'
p901
aS'tg'
p902
aS'ta'
p903
aS'tt'
p904
aS'te'
p905
aS'th'
p906
aS'bo'
p907
aS'ti'
p908
aS'to'
p909
aS'ts'
p910
aS'tn'
p911
aS'tr'
p912
aS'tk'
p913
aS'tw'
p914
aS'ug'
p915
aS'uk'
p916
aS'ur'
p917
aS'uz'
p918
aS've'
p919
aS'vi'
p920
aS'vo'
p921
aS'wa'
p922
aS'cy'
p923
aS'wo'
p924
aS'xh'
p925
aS'yi'
p926
aS'yo'
p927
aS'za'
p928
aS'zu'
p929
asS'persist_stored_files'
p930
I01
sS'version'
p931
I0
sS'accepts_from'
p932
NsS'prefs'
p933
I00
sS'name'
p934
S'Home Theater Backdrops'
p935
sasS'com.plexapp.agents.lastfm'
p936
(lp937
(dp938
S'media_types'
p939
(lp940
S'Artist'
p941
asS'primary_provider'
p942
I01
sS'fallback_agent'
p943
NsS'contributes_to'
p944
Nsg15
I01
sS'languages'
p945
(lp946
S'en'
p947
aS'sv'
p948
aS'fr'
p949
aS'es'
p950
aS'de'
p951
aS'pl'
p952
aS'it'
p953
aS'pt'
p954
aS'ja'
p955
aS'tr'
p956
aS'ru'
p957
aS'zh'
p958
asS'persist_stored_files'
p959
I01
sS'version'
p960
I0
sS'accepts_from'
p961
NsS'prefs'
p962
I01
sS'name'
p963
S'Last.fm'
p964
sa(dp965
S'media_types'
p966
(lp967
S'Album'
p968
asS'primary_provider'
p969
I01
sS'fallback_agent'
p970
NsS'contributes_to'
p971
Nsg15
I01
sS'languages'
p972
(lp973
S'en'
p974
aS'sv'
p975
aS'fr'
p976
aS'es'
p977
aS'de'
p978
aS'pl'
p979
aS'it'
p980
aS'pt'
p981
aS'ja'
p982
aS'tr'
p983
aS'ru'
p984
aS'zh'
p985
asS'persist_stored_files'
p986
I01
sS'version'
p987
I0
sS'accepts_from'
p988
NsS'prefs'
p989
I01
sS'name'
p990
S'Last.fm'
p991
sass.